; Function Attrs: mustprogress nounwind uwtable
define internal void @_ZN4absl18profiling_internal12_GLOBAL__N_119MockPeriodicSamplerD0Ev(ptr noundef nonnull align 8 dereferenceable(184) initializes((0, 8)) %0) unnamed_addr #11 align 2 {
  store ptr getelementptr inbounds nuw inrange(-16, 32) (i8, ptr @_ZTVN4absl18profiling_internal12_GLOBAL__N_119MockPeriodicSamplerE, i64 16), ptr %0, align 8, !tbaa !4
  %2 = getelementptr inbounds nuw i8, ptr %0, i64 112
  tail call void @_ZN7testing8internal14FunctionMockerIFliEED2Ev(ptr noundef nonnull align 8 dereferenceable(72) %2) #26
  %3 = getelementptr inbounds nuw i8, ptr %0, i64 40
  tail call void @_ZN7testing8internal14FunctionMockerIFivEED2Ev(ptr noundef nonnull align 8 dereferenceable(72) %3) #26
  tail call void @_ZdlPvm(ptr noundef nonnull %0, i64 noundef 184) #28
  ret void
}